target datalayout = "e-m:e-p270:32:32-p271:32:32-p272:64:64-i64:64-i128:128-f80:128-n8:16:32:64-S128"
target triple = "x86_64-unknown-linux-gnu"

%"class.boost::detail::shared_count" = type { ptr }
%"class.QuantLib::OneFactorModel::ShortRateTree" = type { %"class.QuantLib::TreeLattice1D", %"class.boost::shared_ptr.33", %"class.boost::shared_ptr.27", double }
%"class.QuantLib::TreeLattice1D" = type { %"class.QuantLib::TreeLattice" }
%"class.QuantLib::TreeLattice" = type { %"class.QuantLib::Lattice", %"class.std::vector.28", i64, i64 }
%"class.QuantLib::Lattice" = type { ptr, %"class.QuantLib::TimeGrid" }
%"class.QuantLib::TimeGrid" = type { %"class.std::vector", %"class.std::vector", %"class.std::vector" }
%"class.std::vector" = type { %"struct.std::_Vector_base" }
%"struct.std::_Vector_base" = type { %"struct.std::_Vector_base<double, std::allocator<double>>::_Vector_impl" }
%"struct.std::_Vector_base<double, std::allocator<double>>::_Vector_impl" = type { %"struct.std::_Vector_base<double, std::allocator<double>>::_Vector_impl_data" }
%"struct.std::_Vector_base<double, std::allocator<double>>::_Vector_impl_data" = type { ptr, ptr, ptr }
%"class.std::vector.28" = type { %"struct.std::_Vector_base.29" }
%"struct.std::_Vector_base.29" = type { %"struct.std::_Vector_base<QuantLib::Array, std::allocator<QuantLib::Array>>::_Vector_impl" }
%"struct.std::_Vector_base<QuantLib::Array, std::allocator<QuantLib::Array>>::_Vector_impl" = type { %"struct.std::_Vector_base<QuantLib::Array, std::allocator<QuantLib::Array>>::_Vector_impl_data" }
%"struct.std::_Vector_base<QuantLib::Array, std::allocator<QuantLib::Array>>::_Vector_impl_data" = type { ptr, ptr, ptr }
%"class.boost::shared_ptr.33" = type { ptr, %"class.boost::detail::shared_count" }
%"class.boost::shared_ptr.27" = type { ptr, %"class.boost::detail::shared_count" }
%"class.QuantLib::TrinomialTree" = type { %"class.QuantLib::Tree", %"class.std::vector.35", double, %"class.std::vector", %"class.QuantLib::TimeGrid" }
%"class.QuantLib::Tree" = type { i64 }
%"class.std::vector.35" = type { %"struct.std::_Vector_base.36" }
%"struct.std::_Vector_base.36" = type { %"struct.std::_Vector_base<QuantLib::TrinomialTree::Branching, std::allocator<QuantLib::TrinomialTree::Branching>>::_Vector_impl" }
%"struct.std::_Vector_base<QuantLib::TrinomialTree::Branching, std::allocator<QuantLib::TrinomialTree::Branching>>::_Vector_impl" = type { %"struct.std::_Vector_base<QuantLib::TrinomialTree::Branching, std::allocator<QuantLib::TrinomialTree::Branching>>::_Vector_impl_data" }
%"struct.std::_Vector_base<QuantLib::TrinomialTree::Branching, std::allocator<QuantLib::TrinomialTree::Branching>>::_Vector_impl_data" = type { ptr, ptr, ptr }
%"class.boost::detail::sp_counted_base" = type { ptr, i32, i32 }
%"class.QuantLib::TrinomialTree::Branching" = type { %"class.std::vector.66", %"class.std::vector.71", i32, i32, i32, i32 }
%"class.std::vector.66" = type { %"struct.std::_Vector_base.67" }
%"struct.std::_Vector_base.67" = type { %"struct.std::_Vector_base<int, std::allocator<int>>::_Vector_impl" }
%"struct.std::_Vector_base<int, std::allocator<int>>::_Vector_impl" = type { %"struct.std::_Vector_base<int, std::allocator<int>>::_Vector_impl_data" }
%"struct.std::_Vector_base<int, std::allocator<int>>::_Vector_impl_data" = type { ptr, ptr, ptr }
%"class.std::vector.71" = type { %"struct.std::_Vector_base.72" }
%"struct.std::_Vector_base.72" = type { %"struct.std::_Vector_base<std::vector<double>, std::allocator<std::vector<double>>>::_Vector_impl" }
%"struct.std::_Vector_base<std::vector<double>, std::allocator<std::vector<double>>>::_Vector_impl" = type { %"struct.std::_Vector_base<std::vector<double>, std::allocator<std::vector<double>>>::_Vector_impl_data" }
%"struct.std::_Vector_base<std::vector<double>, std::allocator<std::vector<double>>>::_Vector_impl_data" = type { ptr, ptr, ptr }

@.str.9 = private unnamed_addr constant [8 x i8] c"px != 0\00", align 1
@.str.10 = private unnamed_addr constant [102 x i8] c"generated/home/dtcxzyw/WorkSpace/SDK/vcpkg/installed/x64-linux/include/boost/smart_ptr/shared_ptr.hpp\00", align 1
@__PRETTY_FUNCTION__._ZNK5boost10shared_ptrIN8QuantLib13TrinomialTreeEEptEv = private unnamed_addr constant [143 x i8] c"typename boost::detail::sp_member_access<T>::type boost::shared_ptr<QuantLib::TrinomialTree>::operator->() const [T = QuantLib::TrinomialTree]\00", align 1

; Function Attrs: inlinehint mustprogress nounwind uwtable
define linkonce_odr void @_ZN5boost6detail16atomic_incrementEPj(ptr noundef %pw) #5 comdat {
entry:
  %pw.addr = alloca ptr, align 8
  %.atomictmp = alloca i32, align 4
  %atomic-temp = alloca i32, align 4
  store ptr %pw, ptr %pw.addr, align 8, !tbaa !3
  %0 = load ptr, ptr %pw.addr, align 8, !tbaa !3
  store i32 1, ptr %.atomictmp, align 4, !tbaa !75
  %1 = load i32, ptr %.atomictmp, align 4
  %2 = atomicrmw add ptr %0, i32 %1 monotonic, align 4
  store i32 %2, ptr %atomic-temp, align 4
  ret void
}

; Function Attrs: noinline noreturn nounwind uwtable
define linkonce_odr hidden void @__clang_call_terminate(ptr noundef %0) #6 comdat {
  %2 = call ptr @__cxa_begin_catch(ptr %0) #15
  call void @_ZSt9terminatev() #22
  unreachable
}

; Function Attrs: mustprogress uwtable
define linkonce_odr void @_ZN5boost6detail15sp_counted_base12add_ref_copyEv(ptr noundef nonnull align 8 dereferenceable(16) %this) #1 comdat align 2 {
entry:
  %this.addr = alloca ptr, align 8
  store ptr %this, ptr %this.addr, align 8, !tbaa !3
  %this1 = load ptr, ptr %this.addr, align 8
  %use_count_ = getelementptr inbounds nuw %"class.boost::detail::sp_counted_base", ptr %this1, i32 0, i32 1
  call void @_ZN5boost6detail16atomic_incrementEPj(ptr noundef %use_count_)
  ret void
}

; Function Attrs: mustprogress nounwind uwtable
define linkonce_odr void @_ZN5boost6detail12shared_countC2EOS1_(ptr noundef nonnull align 8 dereferenceable(8) %this, ptr noundef nonnull align 8 dereferenceable(8) %r) unnamed_addr #3 comdat align 2 {
entry:
  %this.addr = alloca ptr, align 8
  %r.addr = alloca ptr, align 8
  store ptr %this, ptr %this.addr, align 8, !tbaa !3
  store ptr %r, ptr %r.addr, align 8, !tbaa !3
  %this1 = load ptr, ptr %this.addr, align 8
  %pi_ = getelementptr inbounds nuw %"class.boost::detail::shared_count", ptr %this1, i32 0, i32 0
  %0 = load ptr, ptr %r.addr, align 8, !tbaa !3
  %pi_2 = getelementptr inbounds nuw %"class.boost::detail::shared_count", ptr %0, i32 0, i32 0
  %1 = load ptr, ptr %pi_2, align 8, !tbaa !79
  store ptr %1, ptr %pi_, align 8, !tbaa !79
  %2 = load ptr, ptr %r.addr, align 8, !tbaa !3
  %pi_3 = getelementptr inbounds nuw %"class.boost::detail::shared_count", ptr %2, i32 0, i32 0
  store ptr null, ptr %pi_3, align 8, !tbaa !79
  ret void
}

; Function Attrs: mustprogress nounwind uwtable
define linkonce_odr void @_ZN5boost6detail12shared_countC2ERKS1_(ptr noundef nonnull align 8 dereferenceable(8) %this, ptr noundef nonnull align 8 dereferenceable(8) %r) unnamed_addr #3 comdat align 2 personality ptr @__gxx_personality_v0 {
entry:
  %this.addr = alloca ptr, align 8
  %r.addr = alloca ptr, align 8
  store ptr %this, ptr %this.addr, align 8, !tbaa !3
  store ptr %r, ptr %r.addr, align 8, !tbaa !3
  %this1 = load ptr, ptr %this.addr, align 8
  %pi_ = getelementptr inbounds nuw %"class.boost::detail::shared_count", ptr %this1, i32 0, i32 0
  %0 = load ptr, ptr %r.addr, align 8, !tbaa !3
  %pi_2 = getelementptr inbounds nuw %"class.boost::detail::shared_count", ptr %0, i32 0, i32 0
  %1 = load ptr, ptr %pi_2, align 8, !tbaa !79
  store ptr %1, ptr %pi_, align 8, !tbaa !79
  %pi_3 = getelementptr inbounds nuw %"class.boost::detail::shared_count", ptr %this1, i32 0, i32 0
  %2 = load ptr, ptr %pi_3, align 8, !tbaa !79
  %cmp = icmp ne ptr %2, null
  br i1 %cmp, label %if.then, label %if.end

if.then:                                          ; preds = %entry
  %pi_4 = getelementptr inbounds nuw %"class.boost::detail::shared_count", ptr %this1, i32 0, i32 0
  %3 = load ptr, ptr %pi_4, align 8, !tbaa !79
  invoke void @_ZN5boost6detail15sp_counted_base12add_ref_copyEv(ptr noundef nonnull align 8 dereferenceable(16) %3)
          to label %invoke.cont unwind label %terminate.lpad

invoke.cont:                                      ; preds = %if.then
  br label %if.end

if.end:                                           ; preds = %invoke.cont, %entry
  ret void

terminate.lpad:                                   ; preds = %if.then
  %4 = landingpad { ptr, i32 }
          catch ptr null
  %5 = extractvalue { ptr, i32 } %4, 0
  call void @__clang_call_terminate(ptr %5) #22
  unreachable
}

; Function Attrs: inlinehint mustprogress nounwind uwtable
define linkonce_odr noundef i64 @_ZNK8QuantLib13TrinomialTree9Branching4sizeEv(ptr noundef nonnull align 8 dereferenceable(64) %this) #5 comdat align 2 {
entry:
  %this.addr = alloca ptr, align 8
  store ptr %this, ptr %this.addr, align 8, !tbaa !3
  %this1 = load ptr, ptr %this.addr, align 8
  %jMax_ = getelementptr inbounds nuw %"class.QuantLib::TrinomialTree::Branching", ptr %this1, i32 0, i32 5
  %0 = load i32, ptr %jMax_, align 4, !tbaa !117
  %jMin_ = getelementptr inbounds nuw %"class.QuantLib::TrinomialTree::Branching", ptr %this1, i32 0, i32 3
  %1 = load i32, ptr %jMin_, align 4, !tbaa !127
  %sub = sub nsw i32 %0, %1
  %add = add nsw i32 %sub, 1
  %conv = sext i32 %add to i64
  ret i64 %conv
}

; Function Attrs: mustprogress nounwind uwtable
define linkonce_odr noundef nonnull align 8 dereferenceable(64) ptr @_ZNKSt6vectorIN8QuantLib13TrinomialTree9BranchingESaIS2_EEixEm(ptr noundef nonnull align 8 dereferenceable(24) %this, i64 noundef %__n) #3 comdat align 2 {
entry:
  %this.addr = alloca ptr, align 8
  %__n.addr = alloca i64, align 8
  store ptr %this, ptr %this.addr, align 8, !tbaa !3
  store i64 %__n, ptr %__n.addr, align 8, !tbaa !9
  %this1 = load ptr, ptr %this.addr, align 8
  %_M_impl = getelementptr inbounds nuw %"struct.std::_Vector_base.36", ptr %this1, i32 0, i32 0
  %_M_start = getelementptr inbounds nuw %"struct.std::_Vector_base<QuantLib::TrinomialTree::Branching, std::allocator<QuantLib::TrinomialTree::Branching>>::_Vector_impl_data", ptr %_M_impl, i32 0, i32 0
  %0 = load ptr, ptr %_M_start, align 8, !tbaa !115
  %1 = load i64, ptr %__n.addr, align 8, !tbaa !9
  %add.ptr = getelementptr inbounds nuw %"class.QuantLib::TrinomialTree::Branching", ptr %0, i64 %1
  ret ptr %add.ptr
}

; Function Attrs: mustprogress nounwind uwtable
define linkonce_odr void @_ZN5boost10shared_ptrIN8QuantLib14OneFactorModel17ShortRateDynamicsEEC2EOS4_(ptr noundef nonnull align 8 dereferenceable(16) %this, ptr noundef nonnull align 8 dereferenceable(16) %r) unnamed_addr #3 comdat align 2 {
entry:
  %this.addr = alloca ptr, align 8
  %r.addr = alloca ptr, align 8
  store ptr %this, ptr %this.addr, align 8, !tbaa !3
  store ptr %r, ptr %r.addr, align 8, !tbaa !3
  %this1 = load ptr, ptr %this.addr, align 8
  %px = getelementptr inbounds nuw %"class.boost::shared_ptr.27", ptr %this1, i32 0, i32 0
  %0 = load ptr, ptr %r.addr, align 8, !tbaa !3
  %px2 = getelementptr inbounds nuw %"class.boost::shared_ptr.27", ptr %0, i32 0, i32 0
  %1 = load ptr, ptr %px2, align 8, !tbaa !47
  store ptr %1, ptr %px, align 8, !tbaa !47
  %pn = getelementptr inbounds nuw %"class.boost::shared_ptr.27", ptr %this1, i32 0, i32 1
  %2 = load ptr, ptr %r.addr, align 8, !tbaa !3
  %pn3 = getelementptr inbounds nuw %"class.boost::shared_ptr.27", ptr %2, i32 0, i32 1
  call void @_ZN5boost6detail12shared_countC2EOS1_(ptr noundef nonnull align 8 dereferenceable(8) %pn, ptr noundef nonnull align 8 dereferenceable(8) %pn3) #15
  %3 = load ptr, ptr %r.addr, align 8, !tbaa !3
  %px4 = getelementptr inbounds nuw %"class.boost::shared_ptr.27", ptr %3, i32 0, i32 0
  store ptr null, ptr %px4, align 8, !tbaa !47
  ret void
}

; Function Attrs: mustprogress nounwind uwtable
define linkonce_odr void @_ZN5boost10shared_ptrIN8QuantLib13TrinomialTreeEEC2ERKS3_(ptr noundef nonnull align 8 dereferenceable(16) %this, ptr noundef nonnull align 8 dereferenceable(16) %r) unnamed_addr #3 comdat align 2 {
entry:
  %this.addr = alloca ptr, align 8
  %r.addr = alloca ptr, align 8
  store ptr %this, ptr %this.addr, align 8, !tbaa !3
  store ptr %r, ptr %r.addr, align 8, !tbaa !3
  %this1 = load ptr, ptr %this.addr, align 8
  %px = getelementptr inbounds nuw %"class.boost::shared_ptr.33", ptr %this1, i32 0, i32 0
  %0 = load ptr, ptr %r.addr, align 8, !tbaa !3
  %px2 = getelementptr inbounds nuw %"class.boost::shared_ptr.33", ptr %0, i32 0, i32 0
  %1 = load ptr, ptr %px2, align 8, !tbaa !46
  store ptr %1, ptr %px, align 8, !tbaa !46
  %pn = getelementptr inbounds nuw %"class.boost::shared_ptr.33", ptr %this1, i32 0, i32 1
  %2 = load ptr, ptr %r.addr, align 8, !tbaa !3
  %pn3 = getelementptr inbounds nuw %"class.boost::shared_ptr.33", ptr %2, i32 0, i32 1
  call void @_ZN5boost6detail12shared_countC2ERKS1_(ptr noundef nonnull align 8 dereferenceable(8) %pn, ptr noundef nonnull align 8 dereferenceable(8) %pn3) #15
  ret void
}

; Function Attrs: mustprogress uwtable
define linkonce_odr void @_ZN8QuantLib13TreeLattice1DINS_14OneFactorModel13ShortRateTreeEEC2ERKNS_8TimeGridEm(ptr noundef nonnull align 8 dereferenceable(120) %this, ptr noundef nonnull align 8 dereferenceable(72) %timeGrid, i64 noundef %n) unnamed_addr #1 comdat align 2 {
entry:
  %this.addr = alloca ptr, align 8
  %timeGrid.addr = alloca ptr, align 8
  %n.addr = alloca i64, align 8
  store ptr %this, ptr %this.addr, align 8, !tbaa !3
  store ptr %timeGrid, ptr %timeGrid.addr, align 8, !tbaa !3
  store i64 %n, ptr %n.addr, align 8, !tbaa !9
  %this1 = load ptr, ptr %this.addr, align 8
  %0 = load ptr, ptr %timeGrid.addr, align 8, !tbaa !3
  %1 = load i64, ptr %n.addr, align 8, !tbaa !9
  call void @_ZN8QuantLib11TreeLatticeINS_14OneFactorModel13ShortRateTreeEEC2ERKNS_8TimeGridEm(ptr noundef nonnull align 8 dereferenceable(120) %this1, ptr noundef nonnull align 8 dereferenceable(72) %0, i64 noundef %1)
  store ptr getelementptr inbounds inrange(-16, 56) ({ [9 x ptr] }, ptr @_ZTVN8QuantLib13TreeLattice1DINS_14OneFactorModel13ShortRateTreeEEE, i32 0, i32 0, i32 2), ptr %this1, align 8, !tbaa !7
  ret void
}

; Function Attrs: inlinehint mustprogress uwtable
define linkonce_odr noundef i64 @_ZNK8QuantLib13TrinomialTree4sizeEm(ptr noundef nonnull align 8 dereferenceable(136) %this, i64 noundef %i) #2 comdat align 2 {
entry:
  %this.addr = alloca ptr, align 8
  %i.addr = alloca i64, align 8
  store ptr %this, ptr %this.addr, align 8, !tbaa !3
  store i64 %i, ptr %i.addr, align 8, !tbaa !9
  %this1 = load ptr, ptr %this.addr, align 8
  %0 = load i64, ptr %i.addr, align 8, !tbaa !9
  %cmp = icmp eq i64 %0, 0
  br i1 %cmp, label %cond.true, label %cond.false

cond.true:                                        ; preds = %entry
  br label %cond.end

cond.false:                                       ; preds = %entry
  %branchings_ = getelementptr inbounds nuw %"class.QuantLib::TrinomialTree", ptr %this1, i32 0, i32 1
  %1 = load i64, ptr %i.addr, align 8, !tbaa !9
  %sub = sub i64 %1, 1
  %call = call noundef nonnull align 8 dereferenceable(64) ptr @_ZNKSt6vectorIN8QuantLib13TrinomialTree9BranchingESaIS2_EEixEm(ptr noundef nonnull align 8 dereferenceable(24) %branchings_, i64 noundef %sub) #15
  %call2 = call noundef i64 @_ZNK8QuantLib13TrinomialTree9Branching4sizeEv(ptr noundef nonnull align 8 dereferenceable(64) %call)
  br label %cond.end

cond.end:                                         ; preds = %cond.false, %cond.true
  %cond = phi i64 [ 1, %cond.true ], [ %call2, %cond.false ]
  ret i64 %cond
}

; Function Attrs: mustprogress uwtable
define linkonce_odr noundef ptr @_ZNK5boost10shared_ptrIN8QuantLib13TrinomialTreeEEptEv(ptr noundef nonnull align 8 dereferenceable(16) %this) #1 comdat align 2 {
entry:
  %this.addr = alloca ptr, align 8
  store ptr %this, ptr %this.addr, align 8, !tbaa !3
  %this1 = load ptr, ptr %this.addr, align 8
  %px = getelementptr inbounds nuw %"class.boost::shared_ptr.33", ptr %this1, i32 0, i32 0
  %0 = load ptr, ptr %px, align 8, !tbaa !46
  %cmp = icmp ne ptr %0, null
  %lnot = xor i1 %cmp, true
  %lnot2 = xor i1 %lnot, true
  %conv = zext i1 %lnot2 to i64
  %expval = call i64 @llvm.expect.i64(i64 %conv, i64 1)
  %tobool = icmp ne i64 %expval, 0
  br i1 %tobool, label %cond.true, label %cond.false

cond.true:                                        ; preds = %entry
  br label %cond.end

cond.false:                                       ; preds = %entry
  call void @_ZN5boost16assertion_failedEPKcS1_S1_l(ptr noundef @.str.9, ptr noundef @__PRETTY_FUNCTION__._ZNK5boost10shared_ptrIN8QuantLib13TrinomialTreeEEptEv, ptr noundef @.str.10, i64 noundef 784)
  br label %cond.end

cond.end:                                         ; preds = %cond.false, %cond.true
  %px3 = getelementptr inbounds nuw %"class.boost::shared_ptr.33", ptr %this1, i32 0, i32 0
  %1 = load ptr, ptr %px3, align 8, !tbaa !46
  ret ptr %1
}

; Function Attrs: mustprogress uwtable
define void @_ZN8QuantLib14OneFactorModel13ShortRateTreeC2ERKN5boost10shared_ptrINS_13TrinomialTreeEEENS3_INS0_17ShortRateDynamicsEEERKNS_8TimeGridE(ptr noundef nonnull align 8 dereferenceable(160) %this, ptr noundef nonnull align 8 dereferenceable(16) %tree, ptr noundef %dynamics, ptr noundef nonnull align 8 dereferenceable(72) %timeGrid) unnamed_addr #1 align 2 {
entry:
  %this.addr = alloca ptr, align 8
  %tree.addr = alloca ptr, align 8
  %dynamics.indirect_addr = alloca ptr, align 8
  %timeGrid.addr = alloca ptr, align 8
  store ptr %this, ptr %this.addr, align 8, !tbaa !3
  store ptr %tree, ptr %tree.addr, align 8, !tbaa !3
  store ptr %dynamics, ptr %dynamics.indirect_addr, align 8, !tbaa !3
  store ptr %timeGrid, ptr %timeGrid.addr, align 8, !tbaa !3
  %this1 = load ptr, ptr %this.addr, align 8
  %0 = load ptr, ptr %timeGrid.addr, align 8, !tbaa !3
  %1 = load ptr, ptr %tree.addr, align 8, !tbaa !3
  %call = call noundef ptr @_ZNK5boost10shared_ptrIN8QuantLib13TrinomialTreeEEptEv(ptr noundef nonnull align 8 dereferenceable(16) %1)
  %call2 = call noundef i64 @_ZNK8QuantLib13TrinomialTree4sizeEm(ptr noundef nonnull align 8 dereferenceable(136) %call, i64 noundef 1)
  call void @_ZN8QuantLib13TreeLattice1DINS_14OneFactorModel13ShortRateTreeEEC2ERKNS_8TimeGridEm(ptr noundef nonnull align 8 dereferenceable(120) %this1, ptr noundef nonnull align 8 dereferenceable(72) %0, i64 noundef %call2)
  store ptr getelementptr inbounds inrange(-16, 56) ({ [9 x ptr] }, ptr @_ZTVN8QuantLib14OneFactorModel13ShortRateTreeE, i32 0, i32 0, i32 2), ptr %this1, align 8, !tbaa !7
  %tree_ = getelementptr inbounds nuw %"class.QuantLib::OneFactorModel::ShortRateTree", ptr %this1, i32 0, i32 1
  %2 = load ptr, ptr %tree.addr, align 8, !tbaa !3
  call void @_ZN5boost10shared_ptrIN8QuantLib13TrinomialTreeEEC2ERKS3_(ptr noundef nonnull align 8 dereferenceable(16) %tree_, ptr noundef nonnull align 8 dereferenceable(16) %2) #15
  %dynamics_ = getelementptr inbounds nuw %"class.QuantLib::OneFactorModel::ShortRateTree", ptr %this1, i32 0, i32 2
  call void @_ZN5boost10shared_ptrIN8QuantLib14OneFactorModel17ShortRateDynamicsEEC2EOS4_(ptr noundef nonnull align 8 dereferenceable(16) %dynamics_, ptr noundef nonnull align 8 dereferenceable(16) %dynamics) #15
  %spread_ = getelementptr inbounds nuw %"class.QuantLib::OneFactorModel::ShortRateTree", ptr %this1, i32 0, i32 3
  store double 0.000000e+00, ptr %spread_, align 8, !tbaa !28
  ret void
}