; Function Attrs: mustprogress uwtable
define void @_ZN8QuantLib14OneFactorModel13ShortRateTreeC2ERKN5boost10shared_ptrINS_13TrinomialTreeEEENS3_INS0_17ShortRateDynamicsEEERKNS_8TimeGridE(ptr noundef nonnull align 8 dereferenceable(160) %this, ptr nocapture noundef nonnull readonly align 8 dereferenceable(16) %tree, ptr nocapture noundef %dynamics, ptr noundef nonnull align 8 dereferenceable(72) %timeGrid) unnamed_addr #1 align 2 personality ptr @__gxx_personality_v0 {
entry:
  %0 = load ptr, ptr %tree, align 8, !tbaa !39
  %cmp.not.i = icmp eq ptr %0, null
  br i1 %cmp.not.i, label %cond.false.i, label %_ZNK5boost10shared_ptrIN8QuantLib13TrinomialTreeEEptEv.exit, !prof !41

cond.false.i:                                     ; preds = %entry
  tail call void @_ZN5boost16assertion_failedEPKcS1_S1_l(ptr noundef nonnull @.str.9, ptr noundef nonnull @__PRETTY_FUNCTION__._ZNK5boost10shared_ptrIN8QuantLib13TrinomialTreeEEptEv, ptr noundef nonnull @.str.10, i64 noundef 784)
  %.pre.i = load ptr, ptr %tree, align 8, !tbaa !39
  br label %_ZNK5boost10shared_ptrIN8QuantLib13TrinomialTreeEEptEv.exit

_ZNK5boost10shared_ptrIN8QuantLib13TrinomialTreeEEptEv.exit: ; preds = %entry, %cond.false.i
  %1 = phi ptr [ %0, %entry ], [ %.pre.i, %cond.false.i ]
  %branchings_.i = getelementptr inbounds nuw i8, ptr %1, i64 8
  %2 = load ptr, ptr %branchings_.i, align 8, !tbaa !42
  %jMax_.i.i = getelementptr i8, ptr %2, i64 60
  %3 = load i32, ptr %jMax_.i.i, align 4, !tbaa !44
  %jMin_.i.i = getelementptr i8, ptr %2, i64 52
  %4 = load i32, ptr %jMin_.i.i, align 4, !tbaa !55
  %sub.i.i = add i32 %3, 1
  %add.i.i = sub i32 %sub.i.i, %4
  %conv.i.i = sext i32 %add.i.i to i64
  tail call void @_ZN8QuantLib11TreeLatticeINS_14OneFactorModel13ShortRateTreeEEC2ERKNS_8TimeGridEm(ptr noundef nonnull align 8 dereferenceable(120) %this, ptr noundef nonnull align 8 dereferenceable(72) %timeGrid, i64 noundef %conv.i.i)
  store ptr getelementptr inbounds inrange(-16, 56) (i8, ptr @_ZTVN8QuantLib14OneFactorModel13ShortRateTreeE, i64 16), ptr %this, align 8, !tbaa !14
  %tree_ = getelementptr inbounds nuw i8, ptr %this, i64 120
  %5 = load ptr, ptr %tree, align 8, !tbaa !39
  store ptr %5, ptr %tree_, align 8, !tbaa !39
  %pn.i = getelementptr inbounds nuw i8, ptr %this, i64 128
  %pn3.i = getelementptr inbounds nuw i8, ptr %tree, i64 8
  %6 = load ptr, ptr %pn3.i, align 8, !tbaa !16
  store ptr %6, ptr %pn.i, align 8, !tbaa !16
  %cmp.not.i.i = icmp eq ptr %6, null
  br i1 %cmp.not.i.i, label %_ZN5boost10shared_ptrIN8QuantLib13TrinomialTreeEEC2ERKS3_.exit, label %if.then.i.i

if.then.i.i:                                      ; preds = %_ZNK5boost10shared_ptrIN8QuantLib13TrinomialTreeEEptEv.exit
  %use_count_.i.i.i = getelementptr inbounds nuw i8, ptr %6, i64 8
  %7 = atomicrmw add ptr %use_count_.i.i.i, i32 1 monotonic, align 4
  br label %_ZN5boost10shared_ptrIN8QuantLib13TrinomialTreeEEC2ERKS3_.exit

_ZN5boost10shared_ptrIN8QuantLib13TrinomialTreeEEC2ERKS3_.exit: ; preds = %_ZNK5boost10shared_ptrIN8QuantLib13TrinomialTreeEEptEv.exit, %if.then.i.i
  %dynamics_ = getelementptr inbounds nuw i8, ptr %this, i64 136
  %8 = load ptr, ptr %dynamics, align 8, !tbaa !56
  store ptr %8, ptr %dynamics_, align 8, !tbaa !56
  %pn.i3 = getelementptr inbounds nuw i8, ptr %this, i64 144
  %pn3.i4 = getelementptr inbounds nuw i8, ptr %dynamics, i64 8
  %9 = load ptr, ptr %pn3.i4, align 8, !tbaa !16
  store ptr %9, ptr %pn.i3, align 8, !tbaa !16
  tail call void @llvm.memset.p0.i64(ptr noundef nonnull align 8 dereferenceable(16) %dynamics, i8 0, i64 16, i1 false)
  %spread_ = getelementptr inbounds nuw i8, ptr %this, i64 152
  store double 0.000000e+00, ptr %spread_, align 8, !tbaa !58
  ret void
}